; Function Attrs: nounwind uwtable
define noalias noundef ptr @Nwk_ManDfsNodes(ptr noundef %0, ptr noundef readonly captures(none) %1, i32 noundef %2) local_unnamed_addr #0 {
  tail call void @Nwk_ManIncrementTravId(ptr noundef %0) #9
  %4 = tail call noalias dereferenceable_or_null(16) ptr @malloc(i64 noundef 16) #10
  %5 = getelementptr inbounds nuw i8, ptr %4, i64 4
  store i32 0, ptr %5, align 4
  store i32 100, ptr %4, align 8
  %6 = tail call noalias dereferenceable_or_null(800) ptr @malloc(i64 noundef 800) #10
  %7 = getelementptr inbounds nuw i8, ptr %4, i64 8
  store ptr %6, ptr %7, align 8
  %8 = icmp sgt i32 %2, 0
  br i1 %8, label %.lr.ph.preheader, label %._crit_edge

.lr.ph.preheader:                                 ; preds = %3
  %wide.trip.count = zext nneg i32 %2 to i64
  br label %.lr.ph

.lr.ph:                                           ; preds = %.lr.ph.preheader, %15
  %indvars.iv = phi i64 [ 0, %.lr.ph.preheader ], [ %indvars.iv.next, %15 ]
  %9 = getelementptr inbounds nuw ptr, ptr %1, i64 %indvars.iv
  %10 = load ptr, ptr %9, align 8
  %11 = getelementptr i8, ptr %10, i64 32
  %.val = load i32, ptr %11, align 8
  %12 = and i32 %.val, 7
  %.not = icmp eq i32 %12, 2
  br i1 %.not, label %13, label %15

13:                                               ; preds = %.lr.ph
  %14 = getelementptr i8, ptr %10, i64 72
  %.val12 = load ptr, ptr %14, align 8
  %.val12.val = load ptr, ptr %.val12, align 8
  br label %15

15:                                               ; preds = %.lr.ph, %13
  %.val12.val.sink = phi ptr [ %.val12.val, %13 ], [ %10, %.lr.ph ]
  tail call void @Nwk_ManDfsNodes_rec(ptr noundef %.val12.val.sink, ptr noundef nonnull %4)
  %indvars.iv.next = add nuw nsw i64 %indvars.iv, 1
  %exitcond.not = icmp eq i64 %indvars.iv.next, %wide.trip.count
  br i1 %exitcond.not, label %._crit_edge, label %.lr.ph, !llvm.loop !23

._crit_edge:                                      ; preds = %15, %3
  ret ptr %4
}